target datalayout = "e-m:e-p270:32:32-p271:32:32-p272:64:64-i64:64-i128:128-f80:128-n8:16:32:64-S128"
target triple = "x86_64-pc-linux-gnu"

%struct._object = type { %union.anon, ptr }
%union.anon = type { i64 }
%struct.PyASCIIObject = type { %struct._object, i64, i64, %struct.anon.0 }
%struct.anon.0 = type { i16, i16 }

@.str.49 = private unnamed_addr constant [2 x i8] c"U\00", align 1

; Function Attrs: inlinehint nounwind uwtable
define internal i64 @PyUnicode_GET_LENGTH(ptr noundef %0) #4 {
  %2 = alloca ptr, align 8
  store ptr %0, ptr %2, align 8, !tbaa !16
  %3 = load ptr, ptr %2, align 8, !tbaa !16
  %4 = getelementptr inbounds nuw %struct.PyASCIIObject, ptr %3, i32 0, i32 1
  %5 = load i64, ptr %4, align 8, !tbaa !53
  ret i64 %5
}

; Function Attrs: nounwind uwtable
define internal ptr @getpath_dirname(ptr noundef %0, ptr noundef %1) #0 {
  %3 = alloca ptr, align 8
  %4 = alloca ptr, align 8
  %5 = alloca ptr, align 8
  %6 = alloca ptr, align 8
  %7 = alloca i32, align 4
  %8 = alloca i64, align 8
  %9 = alloca i64, align 8
  store ptr %0, ptr %4, align 8, !tbaa !16
  store ptr %1, ptr %5, align 8, !tbaa !16
  call void @llvm.lifetime.start.p0(i64 8, ptr %6) #10
  %10 = load ptr, ptr %5, align 8, !tbaa !16
  %11 = call i32 (ptr, ptr, ...) @PyArg_ParseTuple(ptr noundef %10, ptr noundef @.str.49, ptr noundef %6)
  %12 = icmp ne i32 %11, 0
  br i1 %12, label %14, label %13

13:                                               ; preds = %2
  store ptr null, ptr %3, align 8
  store i32 1, ptr %7, align 4
  br label %29

14:                                               ; preds = %2
  call void @llvm.lifetime.start.p0(i64 8, ptr %8) #10
  %15 = load ptr, ptr %6, align 8, !tbaa !16
  %16 = call i64 @PyUnicode_GET_LENGTH(ptr noundef %15)
  store i64 %16, ptr %8, align 8, !tbaa !30
  call void @llvm.lifetime.start.p0(i64 8, ptr %9) #10
  %17 = load ptr, ptr %6, align 8, !tbaa !16
  %18 = load i64, ptr %8, align 8, !tbaa !30
  %19 = call i64 @PyUnicode_FindChar(ptr noundef %17, i32 noundef 47, i64 noundef 0, i64 noundef %18, i32 noundef -1)
  store i64 %19, ptr %9, align 8, !tbaa !30
  %20 = load i64, ptr %9, align 8, !tbaa !30
  %21 = icmp slt i64 %20, 0
  br i1 %21, label %22, label %24

22:                                               ; preds = %14
  %23 = call ptr @Py_GetConstant(i32 noundef 7)
  store ptr %23, ptr %3, align 8
  store i32 1, ptr %7, align 4
  br label %28

24:                                               ; preds = %14
  %25 = load ptr, ptr %6, align 8, !tbaa !16
  %26 = load i64, ptr %9, align 8, !tbaa !30
  %27 = call ptr @PyUnicode_Substring(ptr noundef %25, i64 noundef 0, i64 noundef %26)
  store ptr %27, ptr %3, align 8
  store i32 1, ptr %7, align 4
  br label %28

28:                                               ; preds = %24, %22
  call void @llvm.lifetime.end.p0(i64 8, ptr %9) #10
  call void @llvm.lifetime.end.p0(i64 8, ptr %8) #10
  br label %29

29:                                               ; preds = %28, %13
  call void @llvm.lifetime.end.p0(i64 8, ptr %6) #10
  %30 = load ptr, ptr %3, align 8
  ret ptr %30
}