; Function Attrs: nounwind uwtable
define internal ptr @getpath_dirname(ptr readnone captures(none) %0, ptr noundef %1) #0 {
  %3 = alloca ptr, align 8
  call void @llvm.lifetime.start.p0(i64 8, ptr nonnull %3) #13
  %4 = call i32 (ptr, ptr, ...) @PyArg_ParseTuple(ptr noundef %1, ptr noundef nonnull @.str.49, ptr noundef nonnull %3) #13
  %.not = icmp eq i32 %4, 0
  br i1 %.not, label %15, label %5

5:                                                ; preds = %2
  %6 = load ptr, ptr %3, align 8, !tbaa !31
  %7 = getelementptr i8, ptr %6, i64 16
  %.val = load i64, ptr %7, align 8, !tbaa !34
  %8 = call i64 @PyUnicode_FindChar(ptr noundef %6, i32 noundef 47, i64 noundef 0, i64 noundef %.val, i32 noundef -1) #13
  %9 = icmp slt i64 %8, 0
  br i1 %9, label %10, label %12

10:                                               ; preds = %5
  %11 = call ptr @Py_GetConstant(i32 noundef 7) #13
  br label %15

12:                                               ; preds = %5
  %13 = load ptr, ptr %3, align 8, !tbaa !31
  %14 = call ptr @PyUnicode_Substring(ptr noundef %13, i64 noundef 0, i64 noundef %8) #13
  br label %15

15:                                               ; preds = %10, %12, %2
  %.0 = phi ptr [ null, %2 ], [ %11, %10 ], [ %14, %12 ]
  call void @llvm.lifetime.end.p0(i64 8, ptr nonnull %3) #13
  ret ptr %.0
}